; Function Attrs: mustprogress nounwind uwtable
define dso_local noundef double @_ZNK4llvm16TargetSchedModel27computeReciprocalThroughputERKNS_6MCInstE(ptr noundef nonnull align 8 dereferenceable(280) %0, ptr noundef nonnull align 8 dereferenceable(128) %1) local_unnamed_addr #0 align 2 {
  %3 = load i8, ptr getelementptr inbounds (i8, ptr @_ZL16EnableSchedModel, i64 128), align 8
  %4 = trunc i8 %3 to i1
  %5 = getelementptr inbounds nuw i8, ptr %0, i64 40
  %6 = load ptr, ptr %5, align 8
  %7 = icmp ne ptr %6, null
  %8 = select i1 %4, i1 %7, i1 false
  br i1 %8, label %9, label %16

9:                                                ; preds = %2
  %10 = getelementptr inbounds nuw i8, ptr %0, i64 176
  %11 = load ptr, ptr %10, align 8
  %12 = getelementptr inbounds nuw i8, ptr %0, i64 184
  %13 = load ptr, ptr %12, align 8
  %14 = getelementptr inbounds i8, ptr %13, i64 8
  %15 = tail call noundef double @_ZNK4llvm12MCSchedModel23getReciprocalThroughputERKNS_15MCSubtargetInfoERKNS_11MCInstrInfoERKNS_6MCInstE(ptr noundef nonnull align 8 dereferenceable(72) %0, ptr noundef nonnull align 8 dereferenceable(288) %11, ptr noundef nonnull align 8 dereferenceable(44) %14, ptr noundef nonnull align 8 dereferenceable(128) %1) #11
  br label %_ZNK4llvm16TargetSchedModel27computeReciprocalThroughputEj.exit

16:                                               ; preds = %2
  %17 = load i8, ptr getelementptr inbounds (i8, ptr @_ZL16EnableSchedItins, i64 128), align 8
  %18 = trunc i8 %17 to i1
  %19 = getelementptr inbounds i8, ptr %0, i64 168
  %20 = load ptr, ptr %19, align 8
  %21 = icmp ne ptr %20, null
  %22 = select i1 %18, i1 %21, i1 false
  br i1 %22, label %23, label %_ZNK4llvm16TargetSchedModel27computeReciprocalThroughputEj.exit

23:                                               ; preds = %16
  %24 = getelementptr inbounds nuw i8, ptr %0, i64 184
  %25 = load ptr, ptr %24, align 8
  %26 = getelementptr inbounds i8, ptr %25, i64 8
  %27 = load ptr, ptr %26, align 8
  %28 = load i32, ptr %1, align 8
  %29 = zext i32 %28 to i64
  %30 = sub nsw i64 0, %29
  %31 = getelementptr inbounds %"class.llvm::MCInstrDesc", ptr %27, i64 %30, i32 4
  %32 = load i16, ptr %31, align 2
  %33 = zext i16 %32 to i32
  %34 = getelementptr inbounds nuw i8, ptr %0, i64 72
  %35 = tail call noundef double @_ZN4llvm12MCSchedModel23getReciprocalThroughputEjRKNS_18InstrItineraryDataE(i32 noundef %33, ptr noundef nonnull align 8 dereferenceable(104) %34) #11
  br label %_ZNK4llvm16TargetSchedModel27computeReciprocalThroughputEj.exit

_ZNK4llvm16TargetSchedModel27computeReciprocalThroughputEj.exit: ; preds = %23, %16, %9
  %.0 = phi double [ %15, %9 ], [ %35, %23 ], [ 0.000000e+00, %16 ]
  ret double %.0
}